; Function Attrs: mustprogress uwtable
define hidden void @_ZNK3sls12arith_plugin18collect_statisticsER10statistics(ptr noundef nonnull readonly align 8 captures(none) dereferenceable(64) %0, ptr noundef nonnull align 8 dereferenceable(16) %1) unnamed_addr #3 align 2 {
  %3 = getelementptr inbounds nuw i8, ptr %0, i64 32
  %4 = load ptr, ptr %3, align 8, !tbaa !48
  %.not = icmp eq ptr %4, null
  %5 = getelementptr inbounds nuw i8, ptr %0, i64 40
  %6 = load ptr, ptr %5, align 8
  %.sink6 = select i1 %.not, ptr %6, ptr %4
  %7 = load ptr, ptr %.sink6, align 8, !tbaa !3
  %8 = getelementptr inbounds nuw i8, ptr %7, i64 144
  %9 = load ptr, ptr %8, align 8
  tail call void %9(ptr noundef nonnull align 8 dereferenceable(672) %.sink6, ptr noundef nonnull align 8 dereferenceable(16) %1)
  ret void
}